; ModuleID = '60/630.c'
source_filename = "60/630.c"
target datalayout = "e-m:e-p270:32:32-p271:32:32-p272:64:64-i64:64-f80:128-n8:16:32:64-S128"
target triple = "x86_64-pc-linux-gnu"

@.str = private unnamed_addr constant [3 x i8] c"%d\00", align 1
@.str.1 = private unnamed_addr constant [7 x i8] c"%d %d\0A\00", align 1
@.str.2 = private unnamed_addr constant [6 x i8] c"empty\00", align 1

; Function Attrs: noinline nounwind uwtable
define dso_local i32 @main() #0 {
  %1 = alloca i32, align 4
  %2 = alloca i32, align 4
  %3 = alloca i32, align 4
  %4 = alloca i32, align 4
  %5 = alloca i32, align 4
  %6 = alloca i32, align 4
  store i32 0, i32* %1, align 4
  store i32 0, i32* %2, align 4
  %7 = call i32 (i8*, ...) @__isoc99_scanf(i8* getelementptr inbounds ([3 x i8], [3 x i8]* @.str, i64 0, i64 0), i32* %5)
  store i32 3, i32* %6, align 4
  %8 = load i32, i32* %6, align 4
  br label %9

9:                                                ; preds = %31, %0
  %10 = load i32, i32* %6, align 4
  %11 = load i32, i32* %5, align 4
  %12 = sub nsw i32 %11, 2
  %13 = icmp sle i32 %10, %12
  br i1 %13, label %14, label %34

14:                                               ; preds = %9
  %15 = load i32, i32* %6, align 4
  %16 = call i32 @sushu(i32 %15)
  %17 = icmp eq i32 %16, 0
  br i1 %17, label %18, label %30

18:                                               ; preds = %14
  %19 = load i32, i32* %6, align 4
  %20 = add nsw i32 %19, 2
  %21 = call i32 @sushu(i32 %20)
  %22 = icmp eq i32 %21, 0
  br i1 %22, label %23, label %30

23:                                               ; preds = %18
  %24 = load i32, i32* %6, align 4
  %25 = load i32, i32* %6, align 4
  %26 = add nsw i32 %25, 2
  %27 = call i32 (i8*, ...) @printf(i8* getelementptr inbounds ([7 x i8], [7 x i8]* @.str.1, i64 0, i64 0), i32 %24, i32 %26)
  %28 = load i32, i32* %2, align 4
  %29 = add nsw i32 %28, 1
  store i32 %29, i32* %2, align 4
  br label %30

30:                                               ; preds = %23, %18, %14
  br label %31

31:                                               ; preds = %30
  %32 = load i32, i32* %6, align 4
  %33 = add nsw i32 %32, 1
  store i32 %33, i32* %6, align 4
  br label %9

34:                                               ; preds = %9
  %35 = load i32, i32* %2, align 4
  %36 = icmp eq i32 0, %35
  br i1 %36, label %37, label %39

37:                                               ; preds = %34
  %38 = call i32 (i8*, ...) @printf(i8* getelementptr inbounds ([6 x i8], [6 x i8]* @.str.2, i64 0, i64 0))
  br label %39

39:                                               ; preds = %37, %34
  %40 = load i32, i32* %1, align 4
  ret i32 %40
}

declare dso_local i32 @__isoc99_scanf(i8*, ...) #1

; Function Attrs: noinline nounwind uwtable
define dso_local i32 @sushu(i32 %0) #0 {
  %2 = alloca i32, align 4
  %3 = alloca i32, align 4
  %4 = alloca i32, align 4
  store i32 %0, i32* %3, align 4
  store i32 3, i32* %4, align 4
  %5 = load i32, i32* %4, align 4
  br label %6

6:                                                ; preds = %17, %1
  %7 = load i32, i32* %4, align 4
  %8 = load i32, i32* %3, align 4
  %9 = icmp sle i32 %7, %8
  br i1 %9, label %10, label %20

10:                                               ; preds = %6
  %11 = load i32, i32* %3, align 4
  %12 = load i32, i32* %4, align 4
  %13 = srem i32 %11, %12
  %14 = icmp eq i32 %13, 0
  br i1 %14, label %15, label %16

15:                                               ; preds = %10
  br label %20

16:                                               ; preds = %10
  br label %17

17:                                               ; preds = %16
  %18 = load i32, i32* %4, align 4
  %19 = add nsw i32 %18, 1
  store i32 %19, i32* %4, align 4
  br label %6

20:                                               ; preds = %15, %6
  %21 = load i32, i32* %4, align 4
  %22 = load i32, i32* %3, align 4
  %23 = icmp eq i32 %21, %22
  br i1 %23, label %24, label %25

24:                                               ; preds = %20
  store i32 0, i32* %2, align 4
  br label %26

25:                                               ; preds = %20
  store i32 1, i32* %2, align 4
  br label %26

26:                                               ; preds = %25, %24
  %27 = load i32, i32* %2, align 4
  ret i32 %27
}

declare dso_local i32 @printf(i8*, ...) #1


!llvm.module.flags = !{!0}
!llvm.ident = !{!1}

!0 = !{i32 1, !"wchar_size", i32 4}
!1 = !{!"clang version 10.0.0-4ubuntu1 "}
